; ModuleID = '42/1499.c'
source_filename = "42/1499.c"
target datalayout = "e-m:e-p270:32:32-p271:32:32-p272:64:64-i64:64-f80:128-n8:16:32:64-S128"
target triple = "x86_64-pc-linux-gnu"

@.str = private unnamed_addr constant [3 x i8] c"%d\00", align 1
@.str.1 = private unnamed_addr constant [2 x i8] c"\0A\00", align 1
@.str.2 = private unnamed_addr constant [4 x i8] c"%ld\00", align 1
@.str.3 = private unnamed_addr constant [5 x i8] c" %ld\00", align 1

; Function Attrs: noinline nounwind uwtable
define dso_local i32 @main() #0 {
  %1 = alloca i32, align 4
  %2 = alloca i32, align 4
  %3 = alloca i32, align 4
  %4 = alloca i32, align 4
  %5 = alloca i32, align 4
  %6 = alloca [100000 x i64], align 16
  store i32 0, i32* %1, align 4
  store i32 0, i32* %2, align 4
  %7 = call i32 (i8*, ...) @__isoc99_scanf(i8* getelementptr inbounds ([3 x i8], [3 x i8]* @.str, i64 0, i64 0), i32* %3)
  %8 = call i32 (i8*, ...) @printf(i8* getelementptr inbounds ([2 x i8], [2 x i8]* @.str.1, i64 0, i64 0))
  store i32 0, i32* %2, align 4
  br label %9

9:                                                ; preds = %18, %0
  %10 = load i32, i32* %2, align 4
  %11 = load i32, i32* %3, align 4
  %12 = icmp slt i32 %10, %11
  br i1 %12, label %13, label %21

13:                                               ; preds = %9
  %14 = load i32, i32* %2, align 4
  %15 = sext i32 %14 to i64
  %16 = getelementptr inbounds [100000 x i64], [100000 x i64]* %6, i64 0, i64 %15
  %17 = call i32 (i8*, ...) @__isoc99_scanf(i8* getelementptr inbounds ([4 x i8], [4 x i8]* @.str.2, i64 0, i64 0), i64* %16)
  br label %18

18:                                               ; preds = %13
  %19 = load i32, i32* %2, align 4
  %20 = add nsw i32 %19, 1
  store i32 %20, i32* %2, align 4
  br label %9

21:                                               ; preds = %9
  store i32 0, i32* %2, align 4
  %22 = call i32 (i8*, ...) @printf(i8* getelementptr inbounds ([2 x i8], [2 x i8]* @.str.1, i64 0, i64 0))
  %23 = call i32 (i8*, ...) @__isoc99_scanf(i8* getelementptr inbounds ([3 x i8], [3 x i8]* @.str, i64 0, i64 0), i32* %5)
  br label %24

24:                                               ; preds = %59, %21
  %25 = load i32, i32* %2, align 4
  %26 = load i32, i32* %3, align 4
  %27 = icmp slt i32 %25, %26
  br i1 %27, label %28, label %62

28:                                               ; preds = %24
  %29 = load i32, i32* %2, align 4
  %30 = sext i32 %29 to i64
  %31 = getelementptr inbounds [100000 x i64], [100000 x i64]* %6, i64 0, i64 %30
  %32 = load i64, i64* %31, align 8
  %33 = load i32, i32* %5, align 4
  %34 = sext i32 %33 to i64
  %35 = icmp eq i64 %32, %34
  br i1 %35, label %36, label %59

36:                                               ; preds = %28
  %37 = load i32, i32* %3, align 4
  %38 = sub nsw i32 %37, 1
  store i32 %38, i32* %3, align 4
  %39 = load i32, i32* %2, align 4
  store i32 %39, i32* %4, align 4
  br label %40

40:                                               ; preds = %53, %36
  %41 = load i32, i32* %4, align 4
  %42 = load i32, i32* %3, align 4
  %43 = icmp slt i32 %41, %42
  br i1 %43, label %44, label %56

44:                                               ; preds = %40
  %45 = load i32, i32* %4, align 4
  %46 = add nsw i32 %45, 1
  %47 = sext i32 %46 to i64
  %48 = getelementptr inbounds [100000 x i64], [100000 x i64]* %6, i64 0, i64 %47
  %49 = load i64, i64* %48, align 8
  %50 = load i32, i32* %4, align 4
  %51 = sext i32 %50 to i64
  %52 = getelementptr inbounds [100000 x i64], [100000 x i64]* %6, i64 0, i64 %51
  store i64 %49, i64* %52, align 8
  br label %53

53:                                               ; preds = %44
  %54 = load i32, i32* %4, align 4
  %55 = add nsw i32 %54, 1
  store i32 %55, i32* %4, align 4
  br label %40

56:                                               ; preds = %40
  %57 = load i32, i32* %2, align 4
  %58 = sub nsw i32 %57, 1
  store i32 %58, i32* %2, align 4
  br label %59

59:                                               ; preds = %56, %28
  %60 = load i32, i32* %2, align 4
  %61 = add nsw i32 %60, 1
  store i32 %61, i32* %2, align 4
  br label %24

62:                                               ; preds = %24
  %63 = getelementptr inbounds [100000 x i64], [100000 x i64]* %6, i64 0, i64 0
  %64 = load i64, i64* %63, align 16
  %65 = call i32 (i8*, ...) @printf(i8* getelementptr inbounds ([4 x i8], [4 x i8]* @.str.2, i64 0, i64 0), i64 %64)
  store i32 1, i32* %2, align 4
  br label %66

66:                                               ; preds = %76, %62
  %67 = load i32, i32* %2, align 4
  %68 = load i32, i32* %3, align 4
  %69 = icmp slt i32 %67, %68
  br i1 %69, label %70, label %79

70:                                               ; preds = %66
  %71 = load i32, i32* %2, align 4
  %72 = sext i32 %71 to i64
  %73 = getelementptr inbounds [100000 x i64], [100000 x i64]* %6, i64 0, i64 %72
  %74 = load i64, i64* %73, align 8
  %75 = call i32 (i8*, ...) @printf(i8* getelementptr inbounds ([5 x i8], [5 x i8]* @.str.3, i64 0, i64 0), i64 %74)
  br label %76

76:                                               ; preds = %70
  %77 = load i32, i32* %2, align 4
  %78 = add nsw i32 %77, 1
  store i32 %78, i32* %2, align 4
  br label %66

79:                                               ; preds = %66
  ret i32 0
}

declare dso_local i32 @__isoc99_scanf(i8*, ...) #1

declare dso_local i32 @printf(i8*, ...) #1


!llvm.module.flags = !{!0}
!llvm.ident = !{!1}

!0 = !{i32 1, !"wchar_size", i32 4}
!1 = !{!"clang version 10.0.0-4ubuntu1 "}
